; ModuleID = 'source-C-CXX/11/419.cpp'
source_filename = "source-C-CXX/11/419.cpp"
target datalayout = "e-m:e-p270:32:32-p271:32:32-p272:64:64-i64:64-f80:128-n8:16:32:64-S128"
target triple = "x86_64-pc-linux-gnu"

%"class.std::ios_base::Init" = type { i8 }
%"class.std::basic_istream" = type { i32 (...)**, i64, %"class.std::basic_ios" }
%"class.std::basic_ios" = type { %"class.std::ios_base", %"class.std::basic_ostream"*, i8, i8, %"class.std::basic_streambuf"*, %"class.std::ctype"*, %"class.std::num_put"*, %"class.std::num_get"* }
%"class.std::ios_base" = type { i32 (...)**, i64, i64, i32, i32, i32, %"struct.std::ios_base::_Callback_list"*, %"struct.std::ios_base::_Words", [8 x %"struct.std::ios_base::_Words"], i32, %"struct.std::ios_base::_Words"*, %"class.std::locale" }
%"struct.std::ios_base::_Callback_list" = type { %"struct.std::ios_base::_Callback_list"*, void (i32, %"class.std::ios_base"*, i32)*, i32, i32 }
%"struct.std::ios_base::_Words" = type { i8*, i64 }
%"class.std::locale" = type { %"class.std::locale::_Impl"* }
%"class.std::locale::_Impl" = type { i32, %"class.std::locale::facet"**, i64, %"class.std::locale::facet"**, i8** }
%"class.std::locale::facet" = type <{ i32 (...)**, i32, [4 x i8] }>
%"class.std::basic_ostream" = type { i32 (...)**, %"class.std::basic_ios" }
%"class.std::basic_streambuf" = type { i32 (...)**, i8*, i8*, i8*, i8*, i8*, i8*, %"class.std::locale" }
%"class.std::ctype" = type <{ %"class.std::locale::facet.base", [4 x i8], %struct.__locale_struct*, i8, [7 x i8], i32*, i32*, i16*, i8, [256 x i8], [256 x i8], i8, [6 x i8] }>
%"class.std::locale::facet.base" = type <{ i32 (...)**, i32 }>
%struct.__locale_struct = type { [13 x %struct.__locale_data*], i16*, i32*, i32*, [13 x i8*] }
%struct.__locale_data = type opaque
%"class.std::num_put" = type { %"class.std::locale::facet.base", [4 x i8] }
%"class.std::num_get" = type { %"class.std::locale::facet.base", [4 x i8] }

@_ZStL8__ioinit = internal global %"class.std::ios_base::Init" zeroinitializer, align 1
@__dso_handle = external hidden global i8
@_ZSt3cin = external global %"class.std::basic_istream", align 8
@_ZSt4cout = external global %"class.std::basic_ostream", align 8
@llvm.global_ctors = appending global [1 x { i32, void ()*, i8* }] [{ i32, void ()*, i8* } { i32 65535, void ()* @_GLOBAL__sub_I_419.cpp, i8* null }]

declare void @_ZNSt8ios_base4InitC1Ev(%"class.std::ios_base::Init"* nonnull align 1 dereferenceable(1)) unnamed_addr #0

; Function Attrs: nounwind
declare void @_ZNSt8ios_base4InitD1Ev(%"class.std::ios_base::Init"* nonnull align 1 dereferenceable(1)) unnamed_addr #1

; Function Attrs: nofree nounwind
declare i32 @__cxa_atexit(void (i8*)*, i8*, i8*) local_unnamed_addr #2

; Function Attrs: mustprogress norecurse sspstrong uwtable
define dso_local i32 @main() local_unnamed_addr #3 {
  %1 = alloca [16 x i32], align 16
  %2 = bitcast [16 x i32]* %1 to i8*
  call void @llvm.lifetime.start.p0i8(i64 64, i8* nonnull %2) #8
  %3 = getelementptr inbounds [16 x i32], [16 x i32]* %1, i64 0, i64 0
  %4 = getelementptr inbounds [16 x i32], [16 x i32]* %1, i64 0, i64 1
  %5 = call nonnull align 8 dereferenceable(16) %"class.std::basic_istream"* @_ZNSirsERi(%"class.std::basic_istream"* nonnull align 8 dereferenceable(16) @_ZSt3cin, i32* nonnull align 4 dereferenceable(4) %3)
  %6 = bitcast %"class.std::basic_istream"* %5 to i8**
  %7 = load i8*, i8** %6, align 8, !tbaa !5
  %8 = getelementptr i8, i8* %7, i64 -24
  %9 = bitcast i8* %8 to i64*
  %10 = load i64, i64* %9, align 8
  %11 = bitcast %"class.std::basic_istream"* %5 to i8*
  %12 = add nsw i64 %10, 32
  %13 = getelementptr inbounds i8, i8* %11, i64 %12
  %14 = bitcast i8* %13 to i32*
  %15 = load i32, i32* %14, align 8, !tbaa !8
  %16 = and i32 %15, 5
  %17 = icmp ne i32 %16, 0
  %18 = load i32, i32* %3, align 16
  %19 = icmp eq i32 %18, -1
  %20 = select i1 %17, i1 true, i1 %19
  br i1 %20, label %167, label %21

21:                                               ; preds = %0, %147
  %22 = call nonnull align 8 dereferenceable(16) %"class.std::basic_istream"* @_ZNSirsERi(%"class.std::basic_istream"* nonnull align 8 dereferenceable(16) @_ZSt3cin, i32* nonnull align 4 dereferenceable(4) %4)
  %23 = bitcast %"class.std::basic_istream"* %22 to i8**
  %24 = load i8*, i8** %23, align 8, !tbaa !5
  %25 = getelementptr i8, i8* %24, i64 -24
  %26 = bitcast i8* %25 to i64*
  %27 = load i64, i64* %26, align 8
  %28 = bitcast %"class.std::basic_istream"* %22 to i8*
  %29 = add nsw i64 %27, 32
  %30 = getelementptr inbounds i8, i8* %28, i64 %29
  %31 = bitcast i8* %30 to i32*
  %32 = load i32, i32* %31, align 8, !tbaa !8
  %33 = and i32 %32, 5
  %34 = icmp eq i32 %33, 0
  br i1 %34, label %35, label %119

35:                                               ; preds = %21, %101
  %36 = phi i64 [ %118, %101 ], [ 0, %21 ]
  %37 = phi i64 [ %103, %101 ], [ 1, %21 ]
  %38 = phi i32* [ %104, %101 ], [ %4, %21 ]
  %39 = phi i32 [ %102, %101 ], [ 0, %21 ]
  %40 = add i64 %36, 1
  %41 = load i32, i32* %38, align 4, !tbaa !18
  %42 = icmp eq i32 %41, 0
  br i1 %42, label %119, label %43

43:                                               ; preds = %35
  %44 = shl nsw i32 %41, 1
  %45 = icmp ult i64 %40, 8
  br i1 %45, label %85, label %46

46:                                               ; preds = %43
  %47 = and i64 %40, -8
  %48 = insertelement <4 x i32> <i32 poison, i32 0, i32 0, i32 0>, i32 %39, i32 0
  %49 = insertelement <4 x i32> poison, i32 %41, i32 0
  %50 = shufflevector <4 x i32> %49, <4 x i32> poison, <4 x i32> zeroinitializer
  %51 = insertelement <4 x i32> poison, i32 %41, i32 0
  %52 = shufflevector <4 x i32> %51, <4 x i32> poison, <4 x i32> zeroinitializer
  %53 = insertelement <4 x i32> poison, i32 %44, i32 0
  %54 = shufflevector <4 x i32> %53, <4 x i32> poison, <4 x i32> zeroinitializer
  %55 = insertelement <4 x i32> poison, i32 %44, i32 0
  %56 = shufflevector <4 x i32> %55, <4 x i32> poison, <4 x i32> zeroinitializer
  br label %57

57:                                               ; preds = %57, %46
  %58 = phi i64 [ 0, %46 ], [ %79, %57 ]
  %59 = phi <4 x i32> [ %48, %46 ], [ %77, %57 ]
  %60 = phi <4 x i32> [ zeroinitializer, %46 ], [ %78, %57 ]
  %61 = getelementptr inbounds [16 x i32], [16 x i32]* %1, i64 0, i64 %58
  %62 = bitcast i32* %61 to <4 x i32>*
  %63 = load <4 x i32>, <4 x i32>* %62, align 16, !tbaa !18
  %64 = getelementptr inbounds i32, i32* %61, i64 4
  %65 = bitcast i32* %64 to <4 x i32>*
  %66 = load <4 x i32>, <4 x i32>* %65, align 16, !tbaa !18
  %67 = shl nsw <4 x i32> %63, <i32 1, i32 1, i32 1, i32 1>
  %68 = shl nsw <4 x i32> %66, <i32 1, i32 1, i32 1, i32 1>
  %69 = icmp eq <4 x i32> %50, %67
  %70 = icmp eq <4 x i32> %52, %68
  %71 = icmp eq <4 x i32> %63, %54
  %72 = icmp eq <4 x i32> %66, %56
  %73 = select <4 x i1> %69, <4 x i1> <i1 true, i1 true, i1 true, i1 true>, <4 x i1> %71
  %74 = select <4 x i1> %70, <4 x i1> <i1 true, i1 true, i1 true, i1 true>, <4 x i1> %72
  %75 = zext <4 x i1> %73 to <4 x i32>
  %76 = zext <4 x i1> %74 to <4 x i32>
  %77 = add <4 x i32> %59, %75
  %78 = add <4 x i32> %60, %76
  %79 = add nuw i64 %58, 8
  %80 = icmp eq i64 %79, %47
  br i1 %80, label %81, label %57, !llvm.loop !19

81:                                               ; preds = %57
  %82 = add <4 x i32> %78, %77
  %83 = call i32 @llvm.vector.reduce.add.v4i32(<4 x i32> %82)
  %84 = icmp eq i64 %40, %47
  br i1 %84, label %101, label %85

85:                                               ; preds = %43, %81
  %86 = phi i64 [ 0, %43 ], [ %47, %81 ]
  %87 = phi i32 [ %39, %43 ], [ %83, %81 ]
  br label %88

88:                                               ; preds = %85, %88
  %89 = phi i64 [ %99, %88 ], [ %86, %85 ]
  %90 = phi i32 [ %98, %88 ], [ %87, %85 ]
  %91 = getelementptr inbounds [16 x i32], [16 x i32]* %1, i64 0, i64 %89
  %92 = load i32, i32* %91, align 4, !tbaa !18
  %93 = shl nsw i32 %92, 1
  %94 = icmp eq i32 %41, %93
  %95 = icmp eq i32 %92, %44
  %96 = select i1 %94, i1 true, i1 %95
  %97 = zext i1 %96 to i32
  %98 = add nsw i32 %90, %97
  %99 = add nuw nsw i64 %89, 1
  %100 = icmp eq i64 %99, %37
  br i1 %100, label %101, label %88, !llvm.loop !22

101:                                              ; preds = %88, %81
  %102 = phi i32 [ %83, %81 ], [ %98, %88 ]
  %103 = add nuw i64 %37, 1
  %104 = getelementptr inbounds [16 x i32], [16 x i32]* %1, i64 0, i64 %103
  %105 = call nonnull align 8 dereferenceable(16) %"class.std::basic_istream"* @_ZNSirsERi(%"class.std::basic_istream"* nonnull align 8 dereferenceable(16) @_ZSt3cin, i32* nonnull align 4 dereferenceable(4) %104)
  %106 = bitcast %"class.std::basic_istream"* %105 to i8**
  %107 = load i8*, i8** %106, align 8, !tbaa !5
  %108 = getelementptr i8, i8* %107, i64 -24
  %109 = bitcast i8* %108 to i64*
  %110 = load i64, i64* %109, align 8
  %111 = bitcast %"class.std::basic_istream"* %105 to i8*
  %112 = add nsw i64 %110, 32
  %113 = getelementptr inbounds i8, i8* %111, i64 %112
  %114 = bitcast i8* %113 to i32*
  %115 = load i32, i32* %114, align 8, !tbaa !8
  %116 = and i32 %115, 5
  %117 = icmp eq i32 %116, 0
  %118 = add i64 %36, 1
  br i1 %117, label %35, label %119, !llvm.loop !24

119:                                              ; preds = %101, %35, %21
  %120 = phi i32 [ 0, %21 ], [ %39, %35 ], [ %102, %101 ]
  %121 = call nonnull align 8 dereferenceable(8) %"class.std::basic_ostream"* @_ZNSolsEi(%"class.std::basic_ostream"* nonnull align 8 dereferenceable(8) @_ZSt4cout, i32 %120)
  %122 = bitcast %"class.std::basic_ostream"* %121 to i8**
  %123 = load i8*, i8** %122, align 8, !tbaa !5
  %124 = getelementptr i8, i8* %123, i64 -24
  %125 = bitcast i8* %124 to i64*
  %126 = load i64, i64* %125, align 8
  %127 = bitcast %"class.std::basic_ostream"* %121 to i8*
  %128 = add nsw i64 %126, 240
  %129 = getelementptr inbounds i8, i8* %127, i64 %128
  %130 = bitcast i8* %129 to %"class.std::ctype"**
  %131 = load %"class.std::ctype"*, %"class.std::ctype"** %130, align 8, !tbaa !25
  %132 = icmp eq %"class.std::ctype"* %131, null
  br i1 %132, label %133, label %134

133:                                              ; preds = %119
  call void @_ZSt16__throw_bad_castv() #9
  unreachable

134:                                              ; preds = %119
  %135 = getelementptr inbounds %"class.std::ctype", %"class.std::ctype"* %131, i64 0, i32 8
  %136 = load i8, i8* %135, align 8, !tbaa !28
  %137 = icmp eq i8 %136, 0
  br i1 %137, label %141, label %138

138:                                              ; preds = %134
  %139 = getelementptr inbounds %"class.std::ctype", %"class.std::ctype"* %131, i64 0, i32 9, i64 10
  %140 = load i8, i8* %139, align 1, !tbaa !30
  br label %147

141:                                              ; preds = %134
  call void @_ZNKSt5ctypeIcE13_M_widen_initEv(%"class.std::ctype"* nonnull align 8 dereferenceable(570) %131)
  %142 = bitcast %"class.std::ctype"* %131 to i8 (%"class.std::ctype"*, i8)***
  %143 = load i8 (%"class.std::ctype"*, i8)**, i8 (%"class.std::ctype"*, i8)*** %142, align 8, !tbaa !5
  %144 = getelementptr inbounds i8 (%"class.std::ctype"*, i8)*, i8 (%"class.std::ctype"*, i8)** %143, i64 6
  %145 = load i8 (%"class.std::ctype"*, i8)*, i8 (%"class.std::ctype"*, i8)** %144, align 8
  %146 = call signext i8 %145(%"class.std::ctype"* nonnull align 8 dereferenceable(570) %131, i8 signext 10)
  br label %147

147:                                              ; preds = %138, %141
  %148 = phi i8 [ %140, %138 ], [ %146, %141 ]
  %149 = call nonnull align 8 dereferenceable(8) %"class.std::basic_ostream"* @_ZNSo3putEc(%"class.std::basic_ostream"* nonnull align 8 dereferenceable(8) %121, i8 signext %148)
  %150 = call nonnull align 8 dereferenceable(8) %"class.std::basic_ostream"* @_ZNSo5flushEv(%"class.std::basic_ostream"* nonnull align 8 dereferenceable(8) %149)
  %151 = call nonnull align 8 dereferenceable(16) %"class.std::basic_istream"* @_ZNSirsERi(%"class.std::basic_istream"* nonnull align 8 dereferenceable(16) @_ZSt3cin, i32* nonnull align 4 dereferenceable(4) %3)
  %152 = bitcast %"class.std::basic_istream"* %151 to i8**
  %153 = load i8*, i8** %152, align 8, !tbaa !5
  %154 = getelementptr i8, i8* %153, i64 -24
  %155 = bitcast i8* %154 to i64*
  %156 = load i64, i64* %155, align 8
  %157 = bitcast %"class.std::basic_istream"* %151 to i8*
  %158 = add nsw i64 %156, 32
  %159 = getelementptr inbounds i8, i8* %157, i64 %158
  %160 = bitcast i8* %159 to i32*
  %161 = load i32, i32* %160, align 8, !tbaa !8
  %162 = and i32 %161, 5
  %163 = icmp ne i32 %162, 0
  %164 = load i32, i32* %3, align 16
  %165 = icmp eq i32 %164, -1
  %166 = select i1 %163, i1 true, i1 %165
  br i1 %166, label %167, label %21, !llvm.loop !31

167:                                              ; preds = %147, %0
  call void @llvm.lifetime.end.p0i8(i64 64, i8* nonnull %2) #8
  ret i32 0
}

; Function Attrs: argmemonly mustprogress nofree nosync nounwind willreturn
declare void @llvm.lifetime.start.p0i8(i64 immarg, i8* nocapture) #4

declare nonnull align 8 dereferenceable(16) %"class.std::basic_istream"* @_ZNSirsERi(%"class.std::basic_istream"* nonnull align 8 dereferenceable(16), i32* nonnull align 4 dereferenceable(4)) local_unnamed_addr #0

declare nonnull align 8 dereferenceable(8) %"class.std::basic_ostream"* @_ZNSolsEi(%"class.std::basic_ostream"* nonnull align 8 dereferenceable(8), i32) local_unnamed_addr #0

; Function Attrs: argmemonly mustprogress nofree nosync nounwind willreturn
declare void @llvm.lifetime.end.p0i8(i64 immarg, i8* nocapture) #4

declare nonnull align 8 dereferenceable(8) %"class.std::basic_ostream"* @_ZNSo3putEc(%"class.std::basic_ostream"* nonnull align 8 dereferenceable(8), i8 signext) local_unnamed_addr #0

declare nonnull align 8 dereferenceable(8) %"class.std::basic_ostream"* @_ZNSo5flushEv(%"class.std::basic_ostream"* nonnull align 8 dereferenceable(8)) local_unnamed_addr #0

; Function Attrs: noreturn
declare void @_ZSt16__throw_bad_castv() local_unnamed_addr #5

declare void @_ZNKSt5ctypeIcE13_M_widen_initEv(%"class.std::ctype"* nonnull align 8 dereferenceable(570)) local_unnamed_addr #0

; Function Attrs: sspstrong uwtable
define internal void @_GLOBAL__sub_I_419.cpp() #6 section ".text.startup" {
  tail call void @_ZNSt8ios_base4InitC1Ev(%"class.std::ios_base::Init"* nonnull align 1 dereferenceable(1) @_ZStL8__ioinit)
  %1 = tail call i32 @__cxa_atexit(void (i8*)* bitcast (void (%"class.std::ios_base::Init"*)* @_ZNSt8ios_base4InitD1Ev to void (i8*)*), i8* getelementptr inbounds (%"class.std::ios_base::Init", %"class.std::ios_base::Init"* @_ZStL8__ioinit, i64 0, i32 0), i8* nonnull @__dso_handle) #8
  ret void
}

; Function Attrs: nofree nosync nounwind readnone willreturn
declare i32 @llvm.vector.reduce.add.v4i32(<4 x i32>) #7


!llvm.module.flags = !{!0, !1, !2, !3}
!llvm.ident = !{!4}

!0 = !{i32 1, !"wchar_size", i32 4}
!1 = !{i32 7, !"PIC Level", i32 2}
!2 = !{i32 7, !"PIE Level", i32 2}
!3 = !{i32 7, !"uwtable", i32 1}
!4 = !{!"clang version 13.0.0"}
!5 = !{!6, !6, i64 0}
!6 = !{!"vtable pointer", !7, i64 0}
!7 = !{!"Simple C++ TBAA"}
!8 = !{!9, !13, i64 32}
!9 = !{!"_ZTSSt8ios_base", !10, i64 8, !10, i64 16, !12, i64 24, !13, i64 28, !13, i64 32, !14, i64 40, !15, i64 48, !11, i64 64, !16, i64 192, !14, i64 200, !17, i64 208}
!10 = !{!"long", !11, i64 0}
!11 = !{!"omnipotent char", !7, i64 0}
!12 = !{!"_ZTSSt13_Ios_Fmtflags", !11, i64 0}
!13 = !{!"_ZTSSt12_Ios_Iostate", !11, i64 0}
!14 = !{!"any pointer", !11, i64 0}
!15 = !{!"_ZTSNSt8ios_base6_WordsE", !14, i64 0, !10, i64 8}
!16 = !{!"int", !11, i64 0}
!17 = !{!"_ZTSSt6locale", !14, i64 0}
!18 = !{!16, !16, i64 0}
!19 = distinct !{!19, !20, !21}
!20 = !{!"llvm.loop.mustprogress"}
!21 = !{!"llvm.loop.isvectorized", i32 1}
!22 = distinct !{!22, !20, !23, !21}
!23 = !{!"llvm.loop.unroll.runtime.disable"}
!24 = distinct !{!24, !20}
!25 = !{!26, !14, i64 240}
!26 = !{!"_ZTSSt9basic_iosIcSt11char_traitsIcEE", !14, i64 216, !11, i64 224, !27, i64 225, !14, i64 232, !14, i64 240, !14, i64 248, !14, i64 256}
!27 = !{!"bool", !11, i64 0}
!28 = !{!29, !11, i64 56}
!29 = !{!"_ZTSSt5ctypeIcE", !14, i64 16, !27, i64 24, !14, i64 32, !14, i64 40, !14, i64 48, !11, i64 56, !11, i64 57, !11, i64 313, !11, i64 569}
!30 = !{!11, !11, i64 0}
!31 = distinct !{!31, !20}
